target datalayout = "e-m:e-p270:32:32-p271:32:32-p272:64:64-i64:64-i128:128-f80:128-n8:16:32:64-S128"
target triple = "x86_64-pc-linux-gnu"

%struct.psa_global_data_t = type { [23 x ptr], [22 x i64], i8 }
%struct.psa_key_slot_t = type { %struct.psa_key_attributes_s, i32, i8, %union.anon, %struct.key_data }
%struct.psa_key_attributes_s = type { i16, i16, i32, %struct.psa_key_policy_s, i32 }
%struct.psa_key_policy_s = type { i32, i32, i32 }
%union.anon = type { %struct.anon.0 }
%struct.anon.0 = type { i64 }
%struct.key_data = type { ptr, i64 }

@global_data = internal global %struct.psa_global_data_t zeroinitializer, align 8

; Function Attrs: inlinehint nounwind uwtable
define internal i64 @key_slice_length(i64 noundef %0) #3 {
  %2 = alloca i64, align 8
  %3 = alloca i64, align 8
  store i64 %0, ptr %3, align 8, !tbaa !11
  %4 = load i64, ptr %3, align 8, !tbaa !11
  %5 = icmp eq i64 %4, 22
  br i1 %5, label %6, label %7

6:                                                ; preds = %1
  store i64 32, ptr %2, align 8
  br label %12

7:                                                ; preds = %1
  %8 = load i64, ptr %3, align 8, !tbaa !11
  %9 = trunc i64 %8 to i32
  %10 = shl i32 16, %9
  %11 = zext i32 %10 to i64
  store i64 %11, ptr %2, align 8
  br label %12

12:                                               ; preds = %7, %6
  %13 = load i64, ptr %2, align 8
  ret i64 %13
}

; Function Attrs: nounwind uwtable
define internal i64 @slot_index_of_volatile_key_id(i32 noundef %0) #0 {
  %2 = alloca i32, align 4
  store i32 %0, ptr %2, align 4, !tbaa !3
  %3 = load i32, ptr %2, align 4, !tbaa !3
  %4 = zext i32 %3 to i64
  %5 = and i64 %4, 33554431
  ret i64 %5
}

; Function Attrs: nounwind uwtable
define internal i64 @slice_index_of_volatile_key_id(i32 noundef %0) #0 {
  %2 = alloca i32, align 4
  %3 = alloca i64, align 8
  store i32 %0, ptr %2, align 4, !tbaa !3
  call void @llvm.lifetime.start.p0(i64 8, ptr %3) #7
  store i64 31, ptr %3, align 8, !tbaa !11
  %4 = load i32, ptr %2, align 4, !tbaa !3
  %5 = lshr i32 %4, 25
  %6 = zext i32 %5 to i64
  %7 = load i64, ptr %3, align 8, !tbaa !11
  %8 = and i64 %6, %7
  call void @llvm.lifetime.end.p0(i64 8, ptr %3) #7
  ret i64 %8
}

; Function Attrs: inlinehint nounwind uwtable
define internal i32 @psa_key_slot_has_readers(ptr noundef %0) #3 {
  %2 = alloca ptr, align 8
  store ptr %0, ptr %2, align 8, !tbaa !7
  %3 = load ptr, ptr %2, align 8, !tbaa !7
  %4 = getelementptr inbounds nuw %struct.psa_key_slot_t, ptr %3, i32 0, i32 3
  %5 = getelementptr inbounds nuw %struct.anon.0, ptr %4, i32 0, i32 0
  %6 = load i64, ptr %5, align 8, !tbaa !20
  %7 = icmp ugt i64 %6, 0
  %8 = zext i1 %7 to i32
  ret i32 %8
}

; Function Attrs: inlinehint nounwind uwtable
define internal i32 @psa_register_read(ptr noundef %0) #3 {
  %2 = alloca i32, align 4
  %3 = alloca ptr, align 8
  store ptr %0, ptr %3, align 8, !tbaa !7
  %4 = load ptr, ptr %3, align 8, !tbaa !7
  %5 = getelementptr inbounds nuw %struct.psa_key_slot_t, ptr %4, i32 0, i32 1
  %6 = load i32, ptr %5, align 8, !tbaa !13
  %7 = icmp ne i32 %6, 2
  br i1 %7, label %14, label %8

8:                                                ; preds = %1
  %9 = load ptr, ptr %3, align 8, !tbaa !7
  %10 = getelementptr inbounds nuw %struct.psa_key_slot_t, ptr %9, i32 0, i32 3
  %11 = getelementptr inbounds nuw %struct.anon.0, ptr %10, i32 0, i32 0
  %12 = load i64, ptr %11, align 8, !tbaa !20
  %13 = icmp uge i64 %12, -1
  br i1 %13, label %14, label %15

14:                                               ; preds = %8, %1
  store i32 -151, ptr %2, align 4
  br label %21

15:                                               ; preds = %8
  %16 = load ptr, ptr %3, align 8, !tbaa !7
  %17 = getelementptr inbounds nuw %struct.psa_key_slot_t, ptr %16, i32 0, i32 3
  %18 = getelementptr inbounds nuw %struct.anon.0, ptr %17, i32 0, i32 0
  %19 = load i64, ptr %18, align 8, !tbaa !20
  %20 = add i64 %19, 1
  store i64 %20, ptr %18, align 8, !tbaa !20
  store i32 0, ptr %2, align 4
  br label %21

21:                                               ; preds = %15, %14
  %22 = load i32, ptr %2, align 4
  ret i32 %22
}

; Function Attrs: inlinehint nounwind uwtable
define internal ptr @get_persistent_key_slot(i64 noundef %0) #3 {
  %2 = alloca i64, align 8
  store i64 %0, ptr %2, align 8, !tbaa !11
  %3 = load ptr, ptr getelementptr inbounds nuw ([23 x ptr], ptr @global_data, i64 0, i64 22), align 8, !tbaa !7
  %4 = load i64, ptr %2, align 8, !tbaa !11
  %5 = getelementptr inbounds nuw %struct.psa_key_slot_t, ptr %3, i64 %4
  ret ptr %5
}

; Function Attrs: nounwind uwtable
define hidden i32 @psa_is_valid_key_id(i32 noundef %0, i32 noundef %1) #0 {
  %3 = alloca i32, align 4
  %4 = alloca i32, align 4
  %5 = alloca i32, align 4
  %6 = alloca i32, align 4
  %7 = alloca i32, align 4
  store i32 %0, ptr %4, align 4, !tbaa !3
  store i32 %1, ptr %5, align 4, !tbaa !3
  call void @llvm.lifetime.start.p0(i64 4, ptr %6) #7
  %8 = load i32, ptr %4, align 4, !tbaa !3
  store i32 %8, ptr %6, align 4, !tbaa !3
  %9 = load i32, ptr %6, align 4, !tbaa !3
  %10 = icmp ule i32 1, %9
  br i1 %10, label %11, label %15

11:                                               ; preds = %2
  %12 = load i32, ptr %6, align 4, !tbaa !3
  %13 = icmp ule i32 %12, 1073741823
  br i1 %13, label %14, label %15

14:                                               ; preds = %11
  store i32 1, ptr %3, align 4
  store i32 1, ptr %7, align 4
  br label %26

15:                                               ; preds = %11, %2
  %16 = load i32, ptr %5, align 4, !tbaa !3
  %17 = icmp ne i32 %16, 0
  br i1 %17, label %18, label %25

18:                                               ; preds = %15
  %19 = load i32, ptr %6, align 4, !tbaa !3
  %20 = icmp ule i32 1073741824, %19
  br i1 %20, label %21, label %25

21:                                               ; preds = %18
  %22 = load i32, ptr %6, align 4, !tbaa !3
  %23 = icmp ule i32 %22, 2147483647
  br i1 %23, label %24, label %25

24:                                               ; preds = %21
  store i32 1, ptr %3, align 4
  store i32 1, ptr %7, align 4
  br label %26

25:                                               ; preds = %21, %18, %15
  store i32 0, ptr %3, align 4
  store i32 1, ptr %7, align 4
  br label %26

26:                                               ; preds = %25, %24, %14
  call void @llvm.lifetime.end.p0(i64 4, ptr %6) #7
  %27 = load i32, ptr %3, align 4
  ret i32 %27
}

; Function Attrs: inlinehint nounwind uwtable
define internal i32 @mbedtls_svc_key_id_equal(i32 noundef %0, i32 noundef %1) #3 {
  %3 = alloca i32, align 4
  %4 = alloca i32, align 4
  store i32 %0, ptr %3, align 4, !tbaa !3
  store i32 %1, ptr %4, align 4, !tbaa !3
  %5 = load i32, ptr %3, align 4, !tbaa !3
  %6 = load i32, ptr %4, align 4, !tbaa !3
  %7 = icmp eq i32 %5, %6
  %8 = zext i1 %7 to i32
  ret i32 %8
}

; Function Attrs: inlinehint nounwind uwtable
define internal ptr @get_volatile_key_slot(i32 noundef %0) #3 {
  %2 = alloca ptr, align 8
  %3 = alloca i32, align 4
  %4 = alloca i64, align 8
  %5 = alloca i32, align 4
  %6 = alloca i64, align 8
  %7 = alloca ptr, align 8
  store i32 %0, ptr %3, align 4, !tbaa !3
  call void @llvm.lifetime.start.p0(i64 8, ptr %4) #7
  %8 = load i32, ptr %3, align 4, !tbaa !3
  %9 = call i64 @slice_index_of_volatile_key_id(i32 noundef %8)
  store i64 %9, ptr %4, align 8, !tbaa !11
  %10 = load i64, ptr %4, align 8, !tbaa !11
  %11 = icmp uge i64 %10, 22
  br i1 %11, label %12, label %13

12:                                               ; preds = %1
  store ptr null, ptr %2, align 8
  store i32 1, ptr %5, align 4
  br label %34

13:                                               ; preds = %1
  call void @llvm.lifetime.start.p0(i64 8, ptr %6) #7
  %14 = load i32, ptr %3, align 4, !tbaa !3
  %15 = call i64 @slot_index_of_volatile_key_id(i32 noundef %14)
  store i64 %15, ptr %6, align 8, !tbaa !11
  %16 = load i64, ptr %6, align 8, !tbaa !11
  %17 = load i64, ptr %4, align 8, !tbaa !11
  %18 = call i64 @key_slice_length(i64 noundef %17)
  %19 = icmp uge i64 %16, %18
  br i1 %19, label %20, label %21

20:                                               ; preds = %13
  store ptr null, ptr %2, align 8
  store i32 1, ptr %5, align 4
  br label %33

21:                                               ; preds = %13
  call void @llvm.lifetime.start.p0(i64 8, ptr %7) #7
  %22 = load i64, ptr %4, align 8, !tbaa !11
  %23 = getelementptr inbounds nuw [23 x ptr], ptr @global_data, i64 0, i64 %22
  %24 = load ptr, ptr %23, align 8, !tbaa !7
  store ptr %24, ptr %7, align 8, !tbaa !7
  %25 = load ptr, ptr %7, align 8, !tbaa !7
  %26 = icmp eq ptr %25, null
  br i1 %26, label %27, label %28

27:                                               ; preds = %21
  store ptr null, ptr %2, align 8
  store i32 1, ptr %5, align 4
  br label %32

28:                                               ; preds = %21
  %29 = load ptr, ptr %7, align 8, !tbaa !7
  %30 = load i64, ptr %6, align 8, !tbaa !11
  %31 = getelementptr inbounds nuw %struct.psa_key_slot_t, ptr %29, i64 %30
  store ptr %31, ptr %2, align 8
  store i32 1, ptr %5, align 4
  br label %32

32:                                               ; preds = %28, %27
  call void @llvm.lifetime.end.p0(i64 8, ptr %7) #7
  br label %33

33:                                               ; preds = %32, %20
  call void @llvm.lifetime.end.p0(i64 8, ptr %6) #7
  br label %34

34:                                               ; preds = %33, %12
  call void @llvm.lifetime.end.p0(i64 8, ptr %4) #7
  %35 = load ptr, ptr %2, align 8
  ret ptr %35
}

; Function Attrs: inlinehint nounwind uwtable
define internal i32 @psa_key_id_is_volatile(i32 noundef %0) #3 {
  %2 = alloca i32, align 4
  store i32 %0, ptr %2, align 4, !tbaa !3
  %3 = load i32, ptr %2, align 4, !tbaa !3
  %4 = icmp uge i32 %3, 1073741824
  br i1 %4, label %5, label %8

5:                                                ; preds = %1
  %6 = load i32, ptr %2, align 4, !tbaa !3
  %7 = icmp ule i32 %6, 2147418111
  br label %8

8:                                                ; preds = %5, %1
  %9 = phi i1 [ false, %1 ], [ %7, %5 ]
  %10 = zext i1 %9 to i32
  ret i32 %10
}

; Function Attrs: inlinehint nounwind uwtable
define internal i32 @mbedtls_svc_key_id_is_null(i32 noundef %0) #3 {
  %2 = alloca i32, align 4
  store i32 %0, ptr %2, align 4, !tbaa !3
  %3 = load i32, ptr %2, align 4, !tbaa !3
  %4 = icmp eq i32 %3, 0
  %5 = zext i1 %4 to i32
  ret i32 %5
}

; Function Attrs: nounwind uwtable
define hidden i32 @psa_unregister_read(ptr noundef %0) #0 {
  %2 = alloca i32, align 4
  %3 = alloca ptr, align 8
  store ptr %0, ptr %3, align 8, !tbaa !7
  %4 = load ptr, ptr %3, align 8, !tbaa !7
  %5 = icmp eq ptr %4, null
  br i1 %5, label %6, label %7

6:                                                ; preds = %1
  store i32 0, ptr %2, align 4
  br label %43

7:                                                ; preds = %1
  %8 = load ptr, ptr %3, align 8, !tbaa !7
  %9 = getelementptr inbounds nuw %struct.psa_key_slot_t, ptr %8, i32 0, i32 1
  %10 = load i32, ptr %9, align 8, !tbaa !13
  %11 = icmp ne i32 %10, 2
  br i1 %11, label %12, label %18

12:                                               ; preds = %7
  %13 = load ptr, ptr %3, align 8, !tbaa !7
  %14 = getelementptr inbounds nuw %struct.psa_key_slot_t, ptr %13, i32 0, i32 1
  %15 = load i32, ptr %14, align 8, !tbaa !13
  %16 = icmp ne i32 %15, 3
  br i1 %16, label %17, label %18

17:                                               ; preds = %12
  store i32 -151, ptr %2, align 4
  br label %43

18:                                               ; preds = %12, %7
  %19 = load ptr, ptr %3, align 8, !tbaa !7
  %20 = getelementptr inbounds nuw %struct.psa_key_slot_t, ptr %19, i32 0, i32 1
  %21 = load i32, ptr %20, align 8, !tbaa !13
  %22 = icmp eq i32 %21, 3
  br i1 %22, label %23, label %32

23:                                               ; preds = %18
  %24 = load ptr, ptr %3, align 8, !tbaa !7
  %25 = getelementptr inbounds nuw %struct.psa_key_slot_t, ptr %24, i32 0, i32 3
  %26 = getelementptr inbounds nuw %struct.anon.0, ptr %25, i32 0, i32 0
  %27 = load i64, ptr %26, align 8, !tbaa !20
  %28 = icmp eq i64 %27, 1
  br i1 %28, label %29, label %32

29:                                               ; preds = %23
  %30 = load ptr, ptr %3, align 8, !tbaa !7
  %31 = call i32 @psa_wipe_key_slot(ptr noundef %30)
  store i32 %31, ptr %2, align 4
  br label %43

32:                                               ; preds = %23, %18
  %33 = load ptr, ptr %3, align 8, !tbaa !7
  %34 = call i32 @psa_key_slot_has_readers(ptr noundef %33)
  %35 = icmp ne i32 %34, 0
  br i1 %35, label %36, label %42

36:                                               ; preds = %32
  %37 = load ptr, ptr %3, align 8, !tbaa !7
  %38 = getelementptr inbounds nuw %struct.psa_key_slot_t, ptr %37, i32 0, i32 3
  %39 = getelementptr inbounds nuw %struct.anon.0, ptr %38, i32 0, i32 0
  %40 = load i64, ptr %39, align 8, !tbaa !20
  %41 = add i64 %40, -1
  store i64 %41, ptr %39, align 8, !tbaa !20
  store i32 0, ptr %2, align 4
  br label %43

42:                                               ; preds = %32
  store i32 -151, ptr %2, align 4
  br label %43

43:                                               ; preds = %42, %36, %29, %17, %6
  %44 = load i32, ptr %2, align 4
  ret i32 %44
}

; Function Attrs: nounwind uwtable
define internal i32 @psa_get_and_lock_key_slot_in_memory(i32 noundef %0, ptr noundef %1) #0 {
  %3 = alloca i32, align 4
  %4 = alloca i32, align 4
  %5 = alloca ptr, align 8
  %6 = alloca i32, align 4
  %7 = alloca i32, align 4
  %8 = alloca i64, align 8
  %9 = alloca ptr, align 8
  %10 = alloca i32, align 4
  store i32 %0, ptr %4, align 4, !tbaa !3
  store ptr %1, ptr %5, align 8, !tbaa !27
  call void @llvm.lifetime.start.p0(i64 4, ptr %6) #7
  store i32 -151, ptr %6, align 4, !tbaa !3
  call void @llvm.lifetime.start.p0(i64 4, ptr %7) #7
  %11 = load i32, ptr %4, align 4, !tbaa !3
  store i32 %11, ptr %7, align 4, !tbaa !3
  call void @llvm.lifetime.start.p0(i64 8, ptr %8) #7
  call void @llvm.lifetime.start.p0(i64 8, ptr %9) #7
  store ptr null, ptr %9, align 8, !tbaa !7
  %12 = load i32, ptr %7, align 4, !tbaa !3
  %13 = call i32 @psa_key_id_is_volatile(i32 noundef %12)
  %14 = icmp ne i32 %13, 0
  br i1 %14, label %15, label %36

15:                                               ; preds = %2
  %16 = load i32, ptr %7, align 4, !tbaa !3
  %17 = call ptr @get_volatile_key_slot(i32 noundef %16)
  store ptr %17, ptr %9, align 8, !tbaa !7
  %18 = load ptr, ptr %9, align 8, !tbaa !7
  %19 = icmp ne ptr %18, null
  br i1 %19, label %20, label %34

20:                                               ; preds = %15
  %21 = load ptr, ptr %9, align 8, !tbaa !7
  %22 = getelementptr inbounds nuw %struct.psa_key_slot_t, ptr %21, i32 0, i32 1
  %23 = load i32, ptr %22, align 8, !tbaa !13
  %24 = icmp eq i32 %23, 2
  br i1 %24, label %25, label %34

25:                                               ; preds = %20
  %26 = load i32, ptr %4, align 4, !tbaa !3
  %27 = load ptr, ptr %9, align 8, !tbaa !7
  %28 = getelementptr inbounds nuw %struct.psa_key_slot_t, ptr %27, i32 0, i32 0
  %29 = getelementptr inbounds nuw %struct.psa_key_attributes_s, ptr %28, i32 0, i32 4
  %30 = load i32, ptr %29, align 4, !tbaa !33
  %31 = call i32 @mbedtls_svc_key_id_equal(i32 noundef %26, i32 noundef %30)
  %32 = icmp ne i32 %31, 0
  br i1 %32, label %33, label %34

33:                                               ; preds = %25
  store i32 0, ptr %6, align 4, !tbaa !3
  br label %35

34:                                               ; preds = %25, %20, %15
  store i32 -140, ptr %6, align 4, !tbaa !3
  br label %35

35:                                               ; preds = %34, %33
  br label %69

36:                                               ; preds = %2
  %37 = load i32, ptr %4, align 4, !tbaa !3
  %38 = call i32 @psa_is_valid_key_id(i32 noundef %37, i32 noundef 1)
  %39 = icmp ne i32 %38, 0
  br i1 %39, label %41, label %40

40:                                               ; preds = %36
  store i32 -136, ptr %3, align 4
  store i32 1, ptr %10, align 4
  br label %83

41:                                               ; preds = %36
  store i64 0, ptr %8, align 8, !tbaa !11
  br label %42

42:                                               ; preds = %62, %41
  %43 = load i64, ptr %8, align 8, !tbaa !11
  %44 = icmp ult i64 %43, 32
  br i1 %44, label %45, label %65

45:                                               ; preds = %42
  %46 = load i64, ptr %8, align 8, !tbaa !11
  %47 = call ptr @get_persistent_key_slot(i64 noundef %46)
  store ptr %47, ptr %9, align 8, !tbaa !7
  %48 = load ptr, ptr %9, align 8, !tbaa !7
  %49 = getelementptr inbounds nuw %struct.psa_key_slot_t, ptr %48, i32 0, i32 1
  %50 = load i32, ptr %49, align 8, !tbaa !13
  %51 = icmp eq i32 %50, 2
  br i1 %51, label %52, label %61

52:                                               ; preds = %45
  %53 = load i32, ptr %4, align 4, !tbaa !3
  %54 = load ptr, ptr %9, align 8, !tbaa !7
  %55 = getelementptr inbounds nuw %struct.psa_key_slot_t, ptr %54, i32 0, i32 0
  %56 = getelementptr inbounds nuw %struct.psa_key_attributes_s, ptr %55, i32 0, i32 4
  %57 = load i32, ptr %56, align 4, !tbaa !33
  %58 = call i32 @mbedtls_svc_key_id_equal(i32 noundef %53, i32 noundef %57)
  %59 = icmp ne i32 %58, 0
  br i1 %59, label %60, label %61

60:                                               ; preds = %52
  br label %65

61:                                               ; preds = %52, %45
  br label %62

62:                                               ; preds = %61
  %63 = load i64, ptr %8, align 8, !tbaa !11
  %64 = add i64 %63, 1
  store i64 %64, ptr %8, align 8, !tbaa !11
  br label %42, !llvm.loop !34

65:                                               ; preds = %60, %42
  %66 = load i64, ptr %8, align 8, !tbaa !11
  %67 = icmp ult i64 %66, 32
  %68 = select i1 %67, i32 0, i32 -140
  store i32 %68, ptr %6, align 4, !tbaa !3
  br label %69

69:                                               ; preds = %65, %35
  %70 = load i32, ptr %6, align 4, !tbaa !3
  %71 = icmp eq i32 %70, 0
  br i1 %71, label %72, label %81

72:                                               ; preds = %69
  %73 = load ptr, ptr %9, align 8, !tbaa !7
  %74 = call i32 @psa_register_read(ptr noundef %73)
  store i32 %74, ptr %6, align 4, !tbaa !3
  %75 = load i32, ptr %6, align 4, !tbaa !3
  %76 = icmp eq i32 %75, 0
  br i1 %76, label %77, label %80

77:                                               ; preds = %72
  %78 = load ptr, ptr %9, align 8, !tbaa !7
  %79 = load ptr, ptr %5, align 8, !tbaa !27
  store ptr %78, ptr %79, align 8, !tbaa !7
  br label %80

80:                                               ; preds = %77, %72
  br label %81

81:                                               ; preds = %80, %69
  %82 = load i32, ptr %6, align 4, !tbaa !3
  store i32 %82, ptr %3, align 4
  store i32 1, ptr %10, align 4
  br label %83

83:                                               ; preds = %81, %40
  call void @llvm.lifetime.end.p0(i64 8, ptr %9) #7
  call void @llvm.lifetime.end.p0(i64 8, ptr %8) #7
  call void @llvm.lifetime.end.p0(i64 4, ptr %7) #7
  call void @llvm.lifetime.end.p0(i64 4, ptr %6) #7
  %84 = load i32, ptr %3, align 4
  ret i32 %84
}

; Function Attrs: inlinehint nounwind uwtable
define internal i32 @psa_key_handle_is_null(i32 noundef %0) #3 {
  %2 = alloca i32, align 4
  store i32 %0, ptr %2, align 4, !tbaa !3
  %3 = load i32, ptr %2, align 4, !tbaa !3
  %4 = call i32 @mbedtls_svc_key_id_is_null(i32 noundef %3)
  ret i32 %4
}

; Function Attrs: nounwind uwtable
define hidden i32 @psa_close_key(i32 noundef %0) #0 {
  %2 = alloca i32, align 4
  %3 = alloca i32, align 4
  %4 = alloca i32, align 4
  %5 = alloca ptr, align 8
  %6 = alloca i32, align 4
  store i32 %0, ptr %3, align 4, !tbaa !3
  call void @llvm.lifetime.start.p0(i64 4, ptr %4) #7
  store i32 -151, ptr %4, align 4, !tbaa !3
  call void @llvm.lifetime.start.p0(i64 8, ptr %5) #7
  %7 = load i32, ptr %3, align 4, !tbaa !3
  %8 = call i32 @psa_key_handle_is_null(i32 noundef %7)
  %9 = icmp ne i32 %8, 0
  br i1 %9, label %10, label %11

10:                                               ; preds = %1
  store i32 0, ptr %2, align 4
  store i32 1, ptr %6, align 4
  br label %36

11:                                               ; preds = %1
  %12 = load i32, ptr %3, align 4, !tbaa !3
  %13 = call i32 @psa_get_and_lock_key_slot_in_memory(i32 noundef %12, ptr noundef %5)
  store i32 %13, ptr %4, align 4, !tbaa !3
  %14 = load i32, ptr %4, align 4, !tbaa !3
  %15 = icmp ne i32 %14, 0
  br i1 %15, label %16, label %22

16:                                               ; preds = %11
  %17 = load i32, ptr %4, align 4, !tbaa !3
  %18 = icmp eq i32 %17, -140
  br i1 %18, label %19, label %20

19:                                               ; preds = %16
  store i32 -136, ptr %4, align 4, !tbaa !3
  br label %20

20:                                               ; preds = %19, %16
  %21 = load i32, ptr %4, align 4, !tbaa !3
  store i32 %21, ptr %2, align 4
  store i32 1, ptr %6, align 4
  br label %36

22:                                               ; preds = %11
  %23 = load ptr, ptr %5, align 8, !tbaa !7
  %24 = getelementptr inbounds nuw %struct.psa_key_slot_t, ptr %23, i32 0, i32 3
  %25 = getelementptr inbounds nuw %struct.anon.0, ptr %24, i32 0, i32 0
  %26 = load i64, ptr %25, align 8, !tbaa !20
  %27 = icmp eq i64 %26, 1
  br i1 %27, label %28, label %31

28:                                               ; preds = %22
  %29 = load ptr, ptr %5, align 8, !tbaa !7
  %30 = call i32 @psa_wipe_key_slot(ptr noundef %29)
  store i32 %30, ptr %4, align 4, !tbaa !3
  br label %34

31:                                               ; preds = %22
  %32 = load ptr, ptr %5, align 8, !tbaa !7
  %33 = call i32 @psa_unregister_read(ptr noundef %32)
  store i32 %33, ptr %4, align 4, !tbaa !3
  br label %34

34:                                               ; preds = %31, %28
  %35 = load i32, ptr %4, align 4, !tbaa !3
  store i32 %35, ptr %2, align 4
  store i32 1, ptr %6, align 4
  br label %36

36:                                               ; preds = %34, %20, %10
  call void @llvm.lifetime.end.p0(i64 8, ptr %5) #7
  call void @llvm.lifetime.end.p0(i64 4, ptr %4) #7
  %37 = load i32, ptr %2, align 4
  ret i32 %37
}