; Function Attrs: nounwind uwtable
define hidden i32 @psa_close_key(i32 noundef %0) local_unnamed_addr #4 {
  %.not = icmp eq i32 %0, 0
  br i1 %.not, label %psa_unregister_read.exit, label %2

2:                                                ; preds = %1
  %3 = add i32 %0, -2147418112
  %4 = icmp ult i32 %3, -1073676288
  br i1 %4, label %25, label %5

5:                                                ; preds = %2
  %6 = lshr i32 %0, 25
  %7 = and i32 %6, 31
  %8 = zext nneg i32 %7 to i64
  %9 = icmp samesign ugt i32 %7, 21
  br i1 %9, label %psa_unregister_read.exit, label %10

10:                                               ; preds = %5
  %11 = and i32 %0, 33554431
  %12 = shl nuw nsw i32 16, %7
  %.not.i.i = icmp samesign ult i32 %11, %12
  br i1 %.not.i.i, label %13, label %psa_unregister_read.exit

13:                                               ; preds = %10
  %14 = zext nneg i32 %11 to i64
  %15 = getelementptr inbounds nuw [23 x ptr], ptr @global_data, i64 0, i64 %8
  %16 = load ptr, ptr %15, align 8, !tbaa !3
  %17 = getelementptr inbounds nuw %struct.psa_key_slot_t, ptr %16, i64 %14
  %.not30.i = icmp eq ptr %16, null
  br i1 %.not30.i, label %psa_unregister_read.exit, label %18

18:                                               ; preds = %13
  %19 = getelementptr inbounds nuw i8, ptr %17, i64 24
  %20 = load i32, ptr %19, align 8, !tbaa !9
  %21 = icmp eq i32 %20, 2
  br i1 %21, label %22, label %psa_unregister_read.exit

22:                                               ; preds = %18
  %23 = getelementptr inbounds nuw i8, ptr %17, i64 20
  %24 = load i32, ptr %23, align 4, !tbaa !28
  %.not.i = icmp eq i32 %0, %24
  br i1 %.not.i, label %.loopexit.i, label %psa_unregister_read.exit

25:                                               ; preds = %2
  %narrow.i.i = icmp slt i32 %0, 1
  br i1 %narrow.i.i, label %psa_unregister_read.exit, label %.preheader.i

.preheader.i:                                     ; preds = %25
  %26 = load ptr, ptr getelementptr inbounds nuw (i8, ptr @global_data, i64 176), align 8, !tbaa !3
  br label %27

27:                                               ; preds = %35, %.preheader.i
  %.02142.i = phi i64 [ 0, %.preheader.i ], [ %36, %35 ]
  %28 = getelementptr inbounds nuw %struct.psa_key_slot_t, ptr %26, i64 %.02142.i
  %29 = getelementptr inbounds nuw i8, ptr %28, i64 24
  %30 = load i32, ptr %29, align 8, !tbaa !9
  %31 = icmp eq i32 %30, 2
  br i1 %31, label %32, label %35

32:                                               ; preds = %27
  %33 = getelementptr inbounds nuw i8, ptr %28, i64 20
  %34 = load i32, ptr %33, align 4, !tbaa !28
  %.not41.i = icmp eq i32 %0, %34
  br i1 %.not41.i, label %.loopexit.i, label %35

35:                                               ; preds = %32, %27
  %36 = add nuw nsw i64 %.02142.i, 1
  %exitcond.not.i = icmp eq i64 %36, 32
  br i1 %exitcond.not.i, label %psa_unregister_read.exit, label %27, !llvm.loop !29

.loopexit.i:                                      ; preds = %32, %22
  %.0.i = phi ptr [ %17, %22 ], [ %28, %32 ]
  %37 = getelementptr inbounds nuw i8, ptr %.0.i, i64 32
  %38 = load i64, ptr %37, align 8, !tbaa !18
  %39 = icmp eq i64 %38, -1
  br i1 %39, label %psa_unregister_read.exit, label %40

40:                                               ; preds = %.loopexit.i
  %41 = add nuw i64 %38, 1
  store i64 %41, ptr %37, align 8, !tbaa !18
  %42 = icmp eq i64 %38, 0
  br i1 %42, label %43, label %45

43:                                               ; preds = %40
  %44 = tail call i32 @psa_wipe_key_slot(ptr noundef nonnull %.0.i) #12
  br label %psa_unregister_read.exit

45:                                               ; preds = %40
  store i64 %38, ptr %37, align 8, !tbaa !18
  br label %psa_unregister_read.exit

psa_unregister_read.exit:                         ; preds = %35, %45, %25, %.loopexit.i, %22, %13, %10, %5, %18, %43, %1
  %.07 = phi i32 [ 0, %1 ], [ %44, %43 ], [ -151, %.loopexit.i ], [ -136, %25 ], [ -136, %22 ], [ -136, %13 ], [ -136, %10 ], [ -136, %5 ], [ -136, %18 ], [ 0, %45 ], [ -136, %35 ]
  ret i32 %.07
}